(dp1
S'layout'
p2
(ilayout
Layout
p3
(dp4
S'capsules'
p5
(lp6
(I6
I5
tp7
a(I25
I10
tp8
asS'numGhosts'
p9
I4
sS'food'
p10
(igame
Grid
p11
(dp12
S'CELLS_PER_INT'
p13
I30
sS'width'
p14
I32
sS'data'
p15
(lp16
(lp17
I00
aI00
aI00
aI00
aI00
aI00
aI00
aI00
aI00
aI00
aI00
aI00
aI00
aI00
aI00
aI00
aa(lp18
I00
aI00
aI00
aI00
aI00
aI00
aI00
aI00
aI00
aI00
aI00
aI00
aI00
aI00
aI00
aI00
aa(lp19
I00
aI00
aI00
aI00
aI00
aI00
aI00
aI00
aI00
aI00
aI00
aI00
aI00
aI00
aI00
aI00
aa(lp20
I00
aI01
aI01
aI00
aI00
aI00
aI00
aI00
aI01
aI00
aI00
aI00
aI00
aI00
aI00
aI00
aa(lp21
I00
aI00
aI00
aI00
aI00
aI00
aI00
aI00
aI00
aI00
aI00
aI00
aI00
aI00
aI00
aI00
aa(lp22
I00
aI01
aI00
aI00
aI00
aI00
aI00
aI00
aI00
aI00
aI00
aI00
aI01
aI00
aI01
aI00
aa(lp23
I00
aI00
aI00
aI00
aI00
aI00
aI00
aI00
aI00
aI00
aI00
aI00
aI00
aI00
aI00
aI00
aa(lp24
I00
aI00
aI00
aI01
aI00
aI00
aI00
aI00
aI01
aI01
aI00
aI00
aI00
aI00
aI00
aI00
aa(lp25
I00
aI00
aI00
aI01
aI00
aI00
aI00
aI00
aI00
aI01
aI00
aI00
aI00
aI00
aI01
aI00
aa(lp26
I00
aI00
aI00
aI00
aI00
aI01
aI00
aI00
aI00
aI00
aI00
aI01
aI00
aI00
aI00
aI00
aa(lp27
I00
aI00
aI00
aI01
aI00
aI00
aI00
aI01
aI00
aI01
aI00
aI01
aI00
aI00
aI01
aI00
aa(lp28
I00
aI00
aI00
aI00
aI00
aI00
aI00
aI00
aI00
aI00
aI00
aI00
aI00
aI00
aI00
aI00
aa(lp29
I00
aI00
aI00
aI00
aI00
aI00
aI00
aI00
aI00
aI00
aI00
aI00
aI00
aI00
aI00
aI00
aa(lp30
I00
aI00
aI00
aI00
aI00
aI00
aI00
aI00
aI00
aI00
aI00
aI00
aI00
aI00
aI00
aI00
aa(lp31
I00
aI00
aI00
aI00
aI00
aI00
aI00
aI00
aI00
aI01
aI00
aI00
aI00
aI00
aI00
aI00
aa(lp32
I00
aI00
aI00
aI00
aI00
aI00
aI00
aI00
aI00
aI00
aI00
aI00
aI00
aI00
aI00
aI00
aa(lp33
I00
aI00
aI00
aI00
aI00
aI00
aI00
aI00
aI00
aI00
aI00
aI00
aI00
aI00
aI00
aI00
aa(lp34
I00
aI00
aI00
aI00
aI00
aI00
aI01
aI00
aI00
aI00
aI00
aI00
aI00
aI00
aI00
aI00
aa(lp35
I00
aI00
aI00
aI00
aI00
aI00
aI00
aI00
aI00
aI00
aI00
aI00
aI00
aI00
aI00
aI00
aa(lp36
I00
aI00
aI00
aI00
aI00
aI00
aI00
aI00
aI00
aI00
aI00
aI00
aI00
aI00
aI00
aI00
aa(lp37
I00
aI00
aI00
aI00
aI00
aI00
aI00
aI00
aI00
aI00
aI00
aI00
aI00
aI00
aI00
aI00
aa(lp38
I00
aI01
aI00
aI00
aI01
aI00
aI01
aI00
aI01
aI00
aI00
aI00
aI01
aI00
aI00
aI00
aa(lp39
I00
aI00
aI00
aI00
aI01
aI00
aI00
aI00
aI00
aI00
aI01
aI00
aI00
aI00
aI00
aI00
aa(lp40
I00
aI01
aI00
aI00
aI00
aI00
aI01
aI00
aI00
aI00
aI00
aI00
aI01
aI00
aI00
aI00
aa(lp41
I00
aI00
aI00
aI00
aI00
aI00
aI01
aI01
aI00
aI00
aI00
aI00
aI01
aI00
aI00
aI00
aa(lp42
I00
aI00
aI00
aI00
aI00
aI00
aI00
aI00
aI00
aI00
aI00
aI00
aI00
aI00
aI00
aI00
aa(lp43
I00
aI01
aI00
aI01
aI00
aI00
aI00
aI00
aI00
aI00
aI00
aI00
aI00
aI00
aI01
aI00
aa(lp44
I00
aI00
aI00
aI00
aI00
aI00
aI00
aI00
aI00
aI00
aI00
aI00
aI00
aI00
aI00
aI00
aa(lp45
I00
aI00
aI00
aI00
aI00
aI00
aI00
aI01
aI00
aI00
aI00
aI00
aI00
aI01
aI01
aI00
aa(lp46
I00
aI00
aI00
aI00
aI00
aI00
aI00
aI00
aI00
aI00
aI00
aI00
aI00
aI00
aI00
aI00
aa(lp47
I00
aI00
aI00
aI00
aI00
aI00
aI00
aI00
aI00
aI00
aI00
aI00
aI00
aI00
aI00
aI00
aa(lp48
I00
aI00
aI00
aI00
aI00
aI00
aI00
aI00
aI00
aI00
aI00
aI00
aI00
aI00
aI00
aI00
aasS'height'
p49
I16
sbsS'agentPositions'
p50
(lp51
(I00
(I1
I2
tp52
tp53
a(I00
(I30
I13
tp54
tp55
a(I00
(I1
I1
tp56
tp57
a(I00
(I30
I14
tp58
tp59
asg49
I16
sg14
I32
sS'walls'
p60
(igame
Grid
p61
(dp62
g13
I30
sg14
I32
sg15
(lp63
(lp64
I01
aI01
aI01
aI01
aI01
aI01
aI01
aI01
aI01
aI01
aI01
aI01
aI01
aI01
aI01
aI01
aa(lp65
I01
aI00
aI00
aI00
aI00
aI00
aI00
aI00
aI00
aI00
aI00
aI00
aI00
aI00
aI00
aI01
aa(lp66
I01
aI01
aI01
aI01
aI01
aI01
aI01
aI01
aI01
aI01
aI01
aI01
aI01
aI01
aI00
aI01
aa(lp67
I01
aI00
aI00
aI00
aI00
aI00
aI00
aI01
aI00
aI01
aI00
aI00
aI00
aI00
aI00
aI01
aa(lp68
I01
aI01
aI01
aI01
aI01
aI01
aI00
aI00
aI00
aI00
aI00
aI01
aI01
aI01
aI01
aI01
aa(lp69
I01
aI00
aI00
aI00
aI00
aI00
aI00
aI00
aI01
aI01
aI00
aI01
aI00
aI01
aI00
aI01
aa(lp70
I01
aI01
aI00
aI01
aI01
aI00
aI01
aI01
aI01
aI00
aI00
aI00
aI00
aI00
aI00
aI01
aa(lp71
I01
aI00
aI00
aI00
aI01
aI00
aI00
aI01
aI00
aI00
aI01
aI01
aI01
aI00
aI01
aI01
aa(lp72
I01
aI00
aI01
aI00
aI01
aI01
aI00
aI01
aI01
aI00
aI01
aI00
aI00
aI00
aI00
aI01
aa(lp73
I01
aI00
aI01
aI01
aI01
aI00
aI00
aI01
aI01
aI01
aI01
aI00
aI01
aI00
aI01
aI01
aa(lp74
I01
aI00
aI01
aI00
aI01
aI01
aI00
aI00
aI01
aI00
aI01
aI00
aI01
aI00
aI00
aI01
aa(lp75
I01
aI00
aI00
aI00
aI00
aI01
aI00
aI01
aI01
aI00
aI01
aI01
aI01
aI00
aI01
aI01
aa(lp76
I01
aI01
aI00
aI01
aI00
aI01
aI00
aI00
aI00
aI00
aI00
aI00
aI00
aI00
aI00
aI01
aa(lp77
I01
aI00
aI00
aI01
aI00
aI00
aI00
aI00
aI00
aI01
aI01
aI01
aI00
aI01
aI00
aI01
aa(lp78
I01
aI00
aI01
aI01
aI01
aI00
aI01
aI00
aI00
aI00
aI01
aI00
aI00
aI01
aI00
aI01
aa(lp79
I01
aI00
aI00
aI01
aI00
aI00
aI01
aI00
aI00
aI01
aI01
aI00
aI00
aI00
aI00
aI01
aa(lp80
I01
aI00
aI00
aI00
aI00
aI01
aI01
aI00
aI00
aI01
aI00
aI00
aI01
aI00
aI00
aI01
aa(lp81
I01
aI00
aI01
aI00
aI00
aI01
aI00
aI00
aI00
aI01
aI00
aI01
aI01
aI01
aI00
aI01
aa(lp82
I01
aI00
aI01
aI00
aI01
aI01
aI01
aI00
aI00
aI00
aI00
aI00
aI01
aI00
aI00
aI01
aa(lp83
I01
aI00
aI00
aI00
aI00
aI00
aI00
aI00
aI00
aI00
aI01
aI00
aI01
aI00
aI01
aI01
aa(lp84
I01
aI01
aI00
aI01
aI01
aI01
aI00
aI01
aI01
aI00
aI01
aI00
aI00
aI00
aI00
aI01
aa(lp85
I01
aI00
aI00
aI01
aI00
aI01
aI00
aI01
aI00
aI00
aI01
aI01
aI00
aI01
aI00
aI01
aa(lp86
I01
aI01
aI00
aI01
aI00
aI01
aI01
aI01
aI01
aI00
aI00
aI01
aI01
aI01
aI00
aI01
aa(lp87
I01
aI00
aI00
aI00
aI00
aI01
aI00
aI01
aI01
aI00
aI01
aI01
aI00
aI01
aI00
aI01
aa(lp88
I01
aI01
aI00
aI01
aI01
aI01
aI00
aI00
aI01
aI00
aI00
aI01
aI00
aI00
aI00
aI01
aa(lp89
I01
aI00
aI00
aI00
aI00
aI00
aI00
aI01
aI01
aI01
aI00
aI01
aI01
aI00
aI01
aI01
aa(lp90
I01
aI00
aI01
aI00
aI01
aI00
aI01
aI01
aI00
aI00
aI00
aI00
aI00
aI00
aI00
aI01
aa(lp91
I01
aI01
aI01
aI01
aI01
aI00
aI00
aI00
aI00
aI00
aI01
aI01
aI01
aI01
aI01
aI01
aa(lp92
I01
aI00
aI00
aI00
aI00
aI00
aI01
aI00
aI01
aI00
aI00
aI00
aI00
aI00
aI00
aI01
aa(lp93
I01
aI00
aI01
aI01
aI01
aI01
aI01
aI01
aI01
aI01
aI01
aI01
aI01
aI01
aI01
aI01
aa(lp94
I01
aI00
aI00
aI00
aI00
aI00
aI00
aI00
aI00
aI00
aI00
aI00
aI00
aI00
aI00
aI01
aa(lp95
I01
aI01
aI01
aI01
aI01
aI01
aI01
aI01
aI01
aI01
aI01
aI01
aI01
aI01
aI01
aI01
aasg49
I16
sbsS'layoutText'
p96
(lp97
S'%%%%%%%%%%%%%%%%%%%%%%%%%%%%%%%%'
p98
aS'%   %. %.%.%       %     %.%.%4%'
p99
aS'% % %%       %%  %   %%%   %.%2%'
p100
aS'% % %. % %%%    %%%% .%..% % % %'
p101
aS'% % %% % ..% %   %   %%%%% % % %'
p102
aS'% %    %%%%% %%%   %%%.% o % % %'
p103
aS'% %% % ..%.  %.%%%       %   % %'
p104
aS'% %. %%.%%%%        %.%%%%  %% %'
p105
aS'% %%  %%%%.%        %%%%.%% .% %'
p106
aS'% %   %       %%%.%  .%.. % %% %'
p107
aS'% % % o %.%%%   %%% %%%%%    % %'
p108
aS'% % % %%%%%   %   % %.. % %% % %'
p109
aS'% % % %..%. %%%%    %%% % .% % %'
p110
aS'%1%.%   %%%   %  %%       %% % %'
p111
aS'%3%.%.%     %       %.%.% .%   %'
p112
aS'%%%%%%%%%%%%%%%%%%%%%%%%%%%%%%%%'
p113
asbsS'blueTeamName'
p114
S'OverworkedImmigrants'
p115
sS'actions'
p116
(lp117
(I1
S'South'
p118
tp119
a(I2
S'North'
p120
tp121
a(I3
g118
tp122
a(I0
g120
tp123
a(I1
g118
tp124
a(I2
g120
tp125
a(I3
g120
tp126
a(I0
g120
tp127
a(I1
g118
tp128
a(I2
g120
tp129
a(I3
g118
tp130
a(I0
g120
tp131
a(I1
g120
tp132
a(I2
g120
tp133
a(I3
S'Stop'
p134
tp135
a(I0
g120
tp136
a(I1
g134
tp137
a(I2
g120
tp138
a(I3
g134
tp139
a(I0
g120
tp140
a(I1
g120
tp141
a(I2
g120
tp142
a(I3
g118
tp143
a(I0
g120
tp144
a(I1
g134
tp145
a(I2
g120
tp146
a(I3
g118
tp147
a(I0
g120
tp148
a(I1
g118
tp149
a(I2
g120
tp150
a(I3
g118
tp151
a(I0
g120
tp152
a(I1
g120
tp153
a(I2
g120
tp154
a(I3
g118
tp155
a(I0
g120
tp156
a(I1
g118
tp157
a(I2
g120
tp158
a(I3
g134
tp159
a(I0
g120
tp160
a(I1
g134
tp161
a(I2
g120
tp162
a(I3
g120
tp163
a(I0
g120
tp164
a(I1
g120
tp165
a(I2
g120
tp166
a(I3
g120
tp167
a(I0
g120
tp168
a(I1
g118
tp169
a(I2
g120
tp170
a(I3
g118
tp171
a(I0
S'East'
p172
tp173
a(I1
g134
tp174
a(I2
g172
tp175
a(I3
g118
tp176
a(I0
g172
tp177
a(I1
g118
tp178
a(I2
g172
tp179
a(I3
g134
tp180
a(I0
g118
tp181
a(I1
g134
tp182
a(I2
g118
tp183
a(I3
g118
tp184
a(I0
g118
tp185
a(I1
g120
tp186
a(I2
g118
tp187
a(I3
g118
tp188
a(I0
g118
tp189
a(I1
g134
tp190
a(I2
g118
tp191
a(I3
g118
tp192
a(I0
g118
tp193
a(I1
g118
tp194
a(I2
g118
tp195
a(I3
g118
tp196
a(I0
g172
tp197
a(I1
g134
tp198
a(I2
g172
tp199
a(I3
g118
tp200
a(I0
g118
tp201
a(I1
g120
tp202
a(I2
g118
tp203
a(I3
g120
tp204
a(I0
g118
tp205
a(I1
g118
tp206
a(I2
g118
tp207
a(I3
g118
tp208
a(I0
g118
tp209
a(I1
g120
tp210
a(I2
g118
tp211
a(I3
g120
tp212
a(I0
g118
tp213
a(I1
g120
tp214
a(I2
g118
tp215
a(I3
g134
tp216
a(I0
g172
tp217
a(I1
g120
tp218
a(I2
S'West'
p219
tp220
a(I3
g134
tp221
a(I0
g118
tp222
a(I1
g134
tp223
a(I2
g118
tp224
a(I3
g120
tp225
a(I0
g172
tp226
a(I1
g120
tp227
a(I2
g118
tp228
a(I3
g134
tp229
a(I0
g172
tp230
a(I1
g134
tp231
a(I2
g118
tp232
a(I3
g134
tp233
a(I0
g120
tp234
a(I1
g134
tp235
a(I2
g118
tp236
a(I3
g120
tp237
a(I0
g172
tp238
a(I1
g134
tp239
a(I2
g118
tp240
a(I3
g118
tp241
a(I0
g172
tp242
a(I1
g118
tp243
a(I2
g120
tp244
a(I3
g118
tp245
a(I0
g172
tp246
a(I1
g118
tp247
a(I2
g120
tp248
a(I3
g118
tp249
a(I0
g172
tp250
a(I1
g118
tp251
a(I2
g120
tp252
a(I3
g120
tp253
a(I0
g172
tp254
a(I1
g120
tp255
a(I2
g120
tp256
a(I3
g118
tp257
a(I0
g172
tp258
a(I1
g134
tp259
a(I2
g120
tp260
a(I3
g120
tp261
a(I0
g120
tp262
a(I1
g134
tp263
a(I2
g172
tp264
a(I3
g120
tp265
a(I0
g172
tp266
a(I1
g134
tp267
a(I2
g120
tp268
a(I3
g118
tp269
a(I0
g172
tp270
a(I1
g120
tp271
a(I2
g120
tp272
a(I3
g120
tp273
a(I0
g172
tp274
a(I1
g118
tp275
a(I2
g219
tp276
a(I3
g120
tp277
a(I0
g172
tp278
a(I1
g118
tp279
a(I2
g172
tp280
a(I3
g120
tp281
a(I0
g118
tp282
a(I1
g134
tp283
a(I2
g118
tp284
a(I3
g134
tp285
a(I0
g120
tp286
a(I1
g118
tp287
a(I2
g118
tp288
a(I3
g134
tp289
a(I0
g172
tp290
a(I1
g120
tp291
a(I2
g219
tp292
a(I3
g134
tp293
a(I0
g172
tp294
a(I1
g118
tp295
a(I2
g118
tp296
a(I3
g120
tp297
a(I0
g118
tp298
a(I1
g118
tp299
a(I2
g118
tp300
a(I3
g120
tp301
a(I0
g172
tp302
a(I1
g118
tp303
a(I2
g118
tp304
a(I3
g118
tp305
a(I0
g172
tp306
a(I1
g120
tp307
a(I2
g118
tp308
a(I3
g118
tp309
a(I0
g219
tp310
a(I1
g134
tp311
a(I2
g118
tp312
a(I3
g118
tp313
a(I0
g219
tp314
a(I1
g134
tp315
a(I2
g120
tp316
a(I3
g120
tp317
a(I0
g120
tp318
a(I1
g118
tp319
a(I2
g120
tp320
a(I3
g134
tp321
a(I0
g120
tp322
a(I1
g118
tp323
a(I2
g120
tp324
a(I3
g134
tp325
a(I0
g120
tp326
a(I1
g120
tp327
a(I2
g120
tp328
a(I3
g134
tp329
a(I0
g172
tp330
a(I1
g118
tp331
a(I2
g120
tp332
a(I3
g118
tp333
a(I0
g172
tp334
a(I1
g118
tp335
a(I2
g172
tp336
a(I3
g118
tp337
a(I0
g118
tp338
a(I1
g120
tp339
a(I2
g172
tp340
a(I3
g120
tp341
a(I0
g120
tp342
a(I1
g118
tp343
a(I2
g120
tp344
a(I3
g134
tp345
a(I0
g172
tp346
a(I1
g118
tp347
a(I2
g219
tp348
a(I3
g118
tp349
a(I0
g120
tp350
a(I1
g118
tp351
a(I2
g120
tp352
a(I3
g120
tp353
a(I0
g118
tp354
a(I1
g134
tp355
a(I2
g120
tp356
a(I3
g118
tp357
a(I0
g172
tp358
a(I1
g118
tp359
a(I2
g120
tp360
a(I3
g118
tp361
a(I0
g172
tp362
a(I1
g134
tp363
a(I2
g172
tp364
a(I3
g118
tp365
a(I0
g120
tp366
a(I1
g118
tp367
a(I2
g172
tp368
a(I3
g134
tp369
a(I0
g172
tp370
a(I1
g120
tp371
a(I2
g118
tp372
a(I3
g120
tp373
a(I0
g172
tp374
a(I1
g120
tp375
a(I2
g172
tp376
a(I3
g118
tp377
a(I0
g120
tp378
a(I1
g134
tp379
a(I2
g118
tp380
a(I3
g118
tp381
a(I0
g120
tp382
a(I1
g120
tp383
a(I2
g120
tp384
a(I3
g120
tp385
a(I0
g120
tp386
a(I1
g120
tp387
a(I2
g172
tp388
a(I3
g118
tp389
a(I0
g120
tp390
a(I1
g118
tp391
a(I2
g219
tp392
a(I3
g134
tp393
a(I0
g118
tp394
a(I1
g120
tp395
a(I2
g219
tp396
a(I3
g118
tp397
a(I0
g219
tp398
a(I1
g120
tp399
a(I2
g120
tp400
a(I3
g120
tp401
a(I0
g219
tp402
a(I1
g118
tp403
a(I2
g120
tp404
a(I3
g134
tp405
a(I0
g118
tp406
a(I1
g134
tp407
a(I2
g120
tp408
a(I3
g120
tp409
a(I0
g219
tp410
a(I1
g118
tp411
a(I2
g219
tp412
a(I3
g118
tp413
a(I0
g172
tp414
a(I1
g134
tp415
a(I2
g172
tp416
a(I3
g118
tp417
a(I0
g120
tp418
a(I1
g134
tp419
a(I2
g118
tp420
a(I3
g118
tp421
a(I0
g120
tp422
a(I1
g120
tp423
a(I2
g118
tp424
a(I3
g120
tp425
a(I0
g219
tp426
a(I1
g134
tp427
a(I2
g118
tp428
a(I3
g118
tp429
a(I0
g219
tp430
a(I1
g120
tp431
a(I2
g172
tp432
a(I3
g120
tp433
a(I0
g219
tp434
a(I1
g120
tp435
a(I2
g172
tp436
a(I3
g120
tp437
a(I0
g219
tp438
a(I1
g118
tp439
a(I2
g219
tp440
a(I3
g120
tp441
a(I0
g118
tp442
a(I1
g120
tp443
a(I2
g219
tp444
a(I3
g120
tp445
a(I0
g118
tp446
a(I1
g118
tp447
a(I2
g120
tp448
a(I3
g134
tp449
a(I0
g172
tp450
a(I1
g120
tp451
a(I2
g219
tp452
a(I3
g134
tp453
a(I0
g219
tp454
a(I1
g134
tp455
a(I2
g219
tp456
a(I3
g118
tp457
a(I0
g118
tp458
a(I1
g118
tp459
a(I2
g219
tp460
a(I3
g134
tp461
a(I0
g219
tp462
a(I1
g118
tp463
a(I2
g120
tp464
a(I3
g120
tp465
a(I0
g219
tp466
a(I1
g120
tp467
a(I2
g120
tp468
a(I3
g118
tp469
a(I0
g118
tp470
a(I1
g120
tp471
a(I2
g120
tp472
a(I3
g118
tp473
a(I0
g118
tp474
a(I1
g120
tp475
a(I2
g120
tp476
a(I3
g134
tp477
a(I0
g172
tp478
a(I1
g134
tp479
a(I2
g219
tp480
a(I3
g120
tp481
a(I0
g118
tp482
a(I1
g120
tp483
a(I2
g219
tp484
a(I3
g120
tp485
a(I0
g118
tp486
a(I1
g120
tp487
a(I2
g118
tp488
a(I3
g118
tp489
a(I0
g118
tp490
a(I1
g120
tp491
a(I2
g118
tp492
a(I3
g134
tp493
a(I0
g118
tp494
a(I1
g118
tp495
a(I2
g118
tp496
a(I3
g118
tp497
a(I0
g118
tp498
a(I1
g120
tp499
a(I2
g118
tp500
a(I3
g134
tp501
a(I0
g118
tp502
a(I1
g134
tp503
a(I2
g118
tp504
a(I3
g134
tp505
a(I0
g118
tp506
a(I1
g134
tp507
a(I2
g118
tp508
a(I3
g118
tp509
a(I0
g172
tp510
a(I1
g120
tp511
a(I2
g118
tp512
a(I3
g120
tp513
a(I0
g172
tp514
a(I1
g134
tp515
a(I2
g118
tp516
a(I3
g134
tp517
a(I0
g118
tp518
a(I1
g134
tp519
a(I2
g118
tp520
a(I3
g120
tp521
a(I0
g120
tp522
a(I1
g120
tp523
a(I2
g118
tp524
a(I3
g134
tp525
a(I0
g172
tp526
a(I1
g134
tp527
a(I2
g118
tp528
a(I3
g118
tp529
a(I0
g172
tp530
a(I1
g134
tp531
a(I2
g118
tp532
a(I3
g118
tp533
a(I0
g118
tp534
a(I1
g134
tp535
a(I2
g118
tp536
a(I3
g120
tp537
a(I0
g120
tp538
a(I1
g118
tp539
a(I2
g120
tp540
a(I3
g118
tp541
a(I0
g120
tp542
a(I1
g134
tp543
a(I2
g120
tp544
a(I3
g120
tp545
a(I0
g120
tp546
a(I1
g118
tp547
a(I2
g120
tp548
a(I3
g118
tp549
a(I0
g219
tp550
a(I1
g118
tp551
a(I2
g120
tp552
a(I3
g120
tp553
a(I0
g219
tp554
a(I1
g134
tp555
a(I2
g120
tp556
a(I3
g118
tp557
a(I0
g172
tp558
a(I1
g120
tp559
a(I2
g120
tp560
a(I3
g120
tp561
a(I0
g172
tp562
a(I1
g118
tp563
a(I2
g120
tp564
a(I3
g120
tp565
a(I0
g118
tp566
a(I1
g120
tp567
a(I2
g120
tp568
a(I3
g118
tp569
a(I0
g118
tp570
a(I1
g134
tp571
a(I2
g120
tp572
a(I3
g120
tp573
a(I0
g172
tp574
a(I1
g120
tp575
a(I2
g120
tp576
a(I3
g118
tp577
a(I0
g172
tp578
a(I1
g120
tp579
a(I2
g120
tp580
a(I3
g118
tp581
a(I0
g120
tp582
a(I1
g134
tp583
a(I2
g120
tp584
a(I3
g120
tp585
a(I0
g172
tp586
a(I1
g134
tp587
a(I2
g120
tp588
a(I3
g120
tp589
a(I0
g219
tp590
a(I1
g134
tp591
a(I2
g172
tp592
a(I3
g134
tp593
a(I0
g118
tp594
a(I1
g134
tp595
a(I2
g172
tp596
a(I3
g134
tp597
a(I0
g118
tp598
a(I1
g134
tp599
a(I2
g118
tp600
a(I3
g120
tp601
a(I0
g172
tp602
a(I1
g134
tp603
a(I2
g118
tp604
a(I3
g118
tp605
a(I0
g219
tp606
a(I1
g134
tp607
a(I2
g118
tp608
a(I3
g120
tp609
a(I0
g120
tp610
a(I1
g118
tp611
a(I2
g118
tp612
a(I3
g134
tp613
a(I0
g120
tp614
a(I1
g134
tp615
a(I2
g172
tp616
a(I3
g120
tp617
a(I0
g120
tp618
a(I1
g134
tp619
a(I2
g118
tp620
a(I3
g134
tp621
a(I0
g120
tp622
a(I1
g120
tp623
a(I2
g118
tp624
a(I3
g118
tp625
a(I0
g120
tp626
a(I1
g134
tp627
a(I2
g219
tp628
a(I3
g134
tp629
a(I0
g219
tp630
a(I1
g118
tp631
a(I2
g172
tp632
a(I3
g134
tp633
a(I0
g219
tp634
a(I1
g134
tp635
a(I2
g118
tp636
a(I3
g134
tp637
a(I0
g172
tp638
a(I1
g118
tp639
a(I2
g118
tp640
a(I3
g120
tp641
a(I0
g120
tp642
a(I1
g120
tp643
a(I2
g219
tp644
a(I3
g120
tp645
a(I0
g118
tp646
a(I1
g118
tp647
a(I2
g118
tp648
a(I3
g120
tp649
a(I0
g172
tp650
a(I1
g118
tp651
a(I2
g118
tp652
a(I3
g134
tp653
a(I0
g118
tp654
a(I1
g134
tp655
a(I2
g118
tp656
a(I3
g118
tp657
a(I0
g172
tp658
a(I1
g120
tp659
a(I2
g118
tp660
a(I3
g118
tp661
a(I0
g172
tp662
a(I1
g118
tp663
a(I2
g118
tp664
a(I3
g120
tp665
a(I0
g120
tp666
a(I1
g134
tp667
a(I2
g120
tp668
a(I3
g120
tp669
a(I0
g120
tp670
a(I1
g120
tp671
a(I2
g120
tp672
a(I3
g120
tp673
a(I0
g172
tp674
asS'length'
p675
I1200
sS'agents'
p676
(lp677
(igame
Agent
p678
(dp679
S'index'
p680
I0
sba(igame
Agent
p681
(dp682
g680
I0
sba(igame
Agent
p683
(dp684
g680
I0
sba(igame
Agent
p685
(dp686
g680
I0
sbasS'redTeamName'
p687
S'XR'
p688
s.